target datalayout = "e-m:e-p270:32:32-p271:32:32-p272:64:64-i64:64-i128:128-f80:128-n8:16:32:64-S128"
target triple = "x86_64-pc-linux-gnu"

; Function Attrs: nounwind uwtable
define hidden ptr @mspace_memalign(ptr noundef %0, i64 noundef %1, i64 noundef %2) #0 {
  %4 = alloca ptr, align 8
  %5 = alloca ptr, align 8
  %6 = alloca i64, align 8
  %7 = alloca i64, align 8
  %8 = alloca ptr, align 8
  %9 = alloca i32, align 4
  store ptr %0, ptr %5, align 8, !tbaa !16
  store i64 %1, ptr %6, align 8, !tbaa !3
  store i64 %2, ptr %7, align 8, !tbaa !3
  call void @llvm.lifetime.start.p0(i64 8, ptr %8) #9
  %10 = load ptr, ptr %5, align 8, !tbaa !16
  store ptr %10, ptr %8, align 8, !tbaa !16
  %11 = load i64, ptr %6, align 8, !tbaa !3
  %12 = icmp ule i64 %11, 16
  br i1 %12, label %13, label %17

13:                                               ; preds = %3
  %14 = load ptr, ptr %5, align 8, !tbaa !16
  %15 = load i64, ptr %7, align 8, !tbaa !3
  %16 = call ptr @mspace_malloc(ptr noundef %14, i64 noundef %15)
  store ptr %16, ptr %4, align 8
  store i32 1, ptr %9, align 4
  br label %22

17:                                               ; preds = %3
  %18 = load ptr, ptr %8, align 8, !tbaa !16
  %19 = load i64, ptr %6, align 8, !tbaa !3
  %20 = load i64, ptr %7, align 8, !tbaa !3
  %21 = call ptr @internal_memalign(ptr noundef %18, i64 noundef %19, i64 noundef %20)
  store ptr %21, ptr %4, align 8
  store i32 1, ptr %9, align 4
  br label %22

22:                                               ; preds = %17, %13
  call void @llvm.lifetime.end.p0(i64 8, ptr %8) #9
  %23 = load ptr, ptr %4, align 8
  ret ptr %23
}