; Function Attrs: nounwind uwtable
define hidden ptr @mspace_memalign(ptr noundef %0, i64 noundef %1, i64 noundef %2) local_unnamed_addr #0 {
  %4 = icmp ult i64 %1, 17
  br i1 %4, label %5, label %7

5:                                                ; preds = %3
  %6 = tail call ptr @mspace_malloc(ptr noundef %0, i64 noundef %2)
  br label %9

7:                                                ; preds = %3
  %8 = tail call fastcc ptr @internal_memalign(ptr noundef %0, i64 noundef %1, i64 noundef %2)
  br label %9

9:                                                ; preds = %7, %5
  %.0 = phi ptr [ %6, %5 ], [ %8, %7 ]
  ret ptr %.0
}